target datalayout = "e-m:e-p270:32:32-p271:32:32-p272:64:64-i64:64-i128:128-f80:128-n8:16:32:64-S128"
target triple = "x86_64-pc-linux-gnu"

%"class.icu_77::UObject" = type { ptr }
%"struct.icu_77::UInitOnce" = type { %"struct.std::atomic", i32 }
%"struct.std::atomic" = type { %"struct.std::__atomic_base" }
%"struct.std::__atomic_base" = type { i32 }
%"struct.icu_77::Norm2AllModes" = type { ptr, %"class.icu_77::ComposeNormalizer2", %"class.icu_77::DecomposeNormalizer2", %"class.icu_77::FCDNormalizer2", %"class.icu_77::ComposeNormalizer2" }
%"class.icu_77::DecomposeNormalizer2" = type { %"class.icu_77::Normalizer2WithImpl" }
%"class.icu_77::Normalizer2WithImpl" = type { %"class.icu_77::Normalizer2", ptr }
%"class.icu_77::Normalizer2" = type { %"class.icu_77::UObject" }
%"class.icu_77::FCDNormalizer2" = type { %"class.icu_77::Normalizer2WithImpl" }
%"class.icu_77::ComposeNormalizer2" = type <{ %"class.icu_77::Normalizer2WithImpl", i8, [7 x i8] }>

@.str.3 = private unnamed_addr constant [9 x i8] c"nfkc_scf\00", align 1
@_ZN6icu_77L17nfkc_scfSingletonE = internal global ptr null, align 8
@_ZN6icu_77L16nfkc_scfInitOnceE = internal global { { i32 }, i32 } zeroinitializer, align 4

; Function Attrs: mustprogress nounwind uwtable
define linkonce_odr noundef i32 @_ZStanSt12memory_orderSt23__memory_order_modifier(i32 noundef %0, i32 noundef %1) #0 comdat {
  %3 = alloca i32, align 4
  %4 = alloca i32, align 4
  store i32 %0, ptr %3, align 4, !tbaa !82
  store i32 %1, ptr %4, align 4, !tbaa !84
  %5 = load i32, ptr %3, align 4, !tbaa !82
  %6 = load i32, ptr %4, align 4, !tbaa !84
  %7 = and i32 %5, %6
  ret i32 %7
}

; Function Attrs: alwaysinline mustprogress nounwind uwtable
define linkonce_odr noundef i32 @_ZNKSt13__atomic_baseIiE4loadESt12memory_order(ptr noundef nonnull align 4 dereferenceable(4) %0, i32 noundef %1) #11 comdat align 2 {
  %3 = alloca ptr, align 8
  %4 = alloca i32, align 4
  %5 = alloca i32, align 4
  %6 = alloca i32, align 4
  store ptr %0, ptr %3, align 8, !tbaa !79
  store i32 %1, ptr %4, align 4, !tbaa !82
  %7 = load ptr, ptr %3, align 8
  call void @llvm.lifetime.start.p0(i64 4, ptr %5) #12
  %8 = load i32, ptr %4, align 4, !tbaa !82
  %9 = call noundef i32 @_ZStanSt12memory_orderSt23__memory_order_modifier(i32 noundef %8, i32 noundef 65535)
  store i32 %9, ptr %5, align 4, !tbaa !82
  br label %10

10:                                               ; preds = %2
  br label %11

11:                                               ; preds = %10
  br label %12

12:                                               ; preds = %11
  br label %13

13:                                               ; preds = %12
  br label %14

14:                                               ; preds = %13
  br label %15

15:                                               ; preds = %14
  %16 = getelementptr inbounds nuw %"struct.std::__atomic_base", ptr %7, i32 0, i32 0
  %17 = load i32, ptr %4, align 4, !tbaa !82
  switch i32 %17, label %18 [
    i32 1, label %20
    i32 2, label %20
    i32 5, label %22
  ]

18:                                               ; preds = %15
  %19 = load atomic i32, ptr %16 monotonic, align 4
  store i32 %19, ptr %6, align 4
  br label %24

20:                                               ; preds = %15, %15
  %21 = load atomic i32, ptr %16 acquire, align 4
  store i32 %21, ptr %6, align 4
  br label %24

22:                                               ; preds = %15
  %23 = load atomic i32, ptr %16 seq_cst, align 4
  store i32 %23, ptr %6, align 4
  br label %24

24:                                               ; preds = %22, %20, %18
  %25 = load i32, ptr %6, align 4, !tbaa !37
  call void @llvm.lifetime.end.p0(i64 4, ptr %5) #12
  ret i32 %25
}

; Function Attrs: inlinehint mustprogress nounwind uwtable
define linkonce_odr noundef i32 @_ZN6icu_7716umtx_loadAcquireERSt6atomicIiE(ptr noundef nonnull align 4 dereferenceable(4) %0) #5 comdat {
  %2 = alloca ptr, align 8
  store ptr %0, ptr %2, align 8, !tbaa !77
  %3 = load ptr, ptr %2, align 8, !tbaa !77
  %4 = call noundef i32 @_ZNKSt13__atomic_baseIiE4loadESt12memory_order(ptr noundef nonnull align 4 dereferenceable(4) %3, i32 noundef 2) #12
  ret i32 %4
}

; Function Attrs: mustprogress uwtable
define linkonce_odr void @_ZN6icu_7713umtx_initOnceIPKcEEvRNS_9UInitOnceEPFvT_R10UErrorCodeES5_S7_(ptr noundef nonnull align 4 dereferenceable(8) %0, ptr noundef %1, ptr noundef %2, ptr noundef nonnull align 4 dereferenceable(4) %3) #4 comdat {
  %5 = alloca ptr, align 8
  %6 = alloca ptr, align 8
  %7 = alloca ptr, align 8
  %8 = alloca ptr, align 8
  store ptr %0, ptr %5, align 8, !tbaa !41
  store ptr %1, ptr %6, align 8, !tbaa !27
  store ptr %2, ptr %7, align 8, !tbaa !28
  store ptr %3, ptr %8, align 8, !tbaa !27
  %9 = load ptr, ptr %8, align 8, !tbaa !27
  %10 = load i32, ptr %9, align 4, !tbaa !34
  %11 = call noundef signext i8 @_ZL9U_FAILURE10UErrorCode(i32 noundef %10)
  %12 = icmp ne i8 %11, 0
  br i1 %12, label %13, label %14

13:                                               ; preds = %4
  br label %44

14:                                               ; preds = %4
  %15 = load ptr, ptr %5, align 8, !tbaa !41
  %16 = getelementptr inbounds nuw %"struct.icu_77::UInitOnce", ptr %15, i32 0, i32 0
  %17 = call noundef i32 @_ZN6icu_7716umtx_loadAcquireERSt6atomicIiE(ptr noundef nonnull align 4 dereferenceable(4) %16)
  %18 = icmp ne i32 %17, 2
  br i1 %18, label %19, label %32

19:                                               ; preds = %14
  %20 = load ptr, ptr %5, align 8, !tbaa !41
  %21 = call noundef signext i8 @_ZN6icu_7720umtx_initImplPreInitERNS_9UInitOnceE(ptr noundef nonnull align 4 dereferenceable(8) %20)
  %22 = icmp ne i8 %21, 0
  br i1 %22, label %23, label %32

23:                                               ; preds = %19
  %24 = load ptr, ptr %6, align 8, !tbaa !27
  %25 = load ptr, ptr %7, align 8, !tbaa !28
  %26 = load ptr, ptr %8, align 8, !tbaa !27
  call void %24(ptr noundef %25, ptr noundef nonnull align 4 dereferenceable(4) %26)
  %27 = load ptr, ptr %8, align 8, !tbaa !27
  %28 = load i32, ptr %27, align 4, !tbaa !34
  %29 = load ptr, ptr %5, align 8, !tbaa !41
  %30 = getelementptr inbounds nuw %"struct.icu_77::UInitOnce", ptr %29, i32 0, i32 1
  store i32 %28, ptr %30, align 4, !tbaa !43
  %31 = load ptr, ptr %5, align 8, !tbaa !41
  call void @_ZN6icu_7721umtx_initImplPostInitERNS_9UInitOnceE(ptr noundef nonnull align 4 dereferenceable(8) %31)
  br label %44

32:                                               ; preds = %19, %14
  %33 = load ptr, ptr %5, align 8, !tbaa !41
  %34 = getelementptr inbounds nuw %"struct.icu_77::UInitOnce", ptr %33, i32 0, i32 1
  %35 = load i32, ptr %34, align 4, !tbaa !43
  %36 = call noundef signext i8 @_ZL9U_FAILURE10UErrorCode(i32 noundef %35)
  %37 = icmp ne i8 %36, 0
  br i1 %37, label %38, label %43

38:                                               ; preds = %32
  %39 = load ptr, ptr %5, align 8, !tbaa !41
  %40 = getelementptr inbounds nuw %"struct.icu_77::UInitOnce", ptr %39, i32 0, i32 1
  %41 = load i32, ptr %40, align 4, !tbaa !43
  %42 = load ptr, ptr %8, align 8, !tbaa !27
  store i32 %41, ptr %42, align 4, !tbaa !34
  br label %43

43:                                               ; preds = %38, %32
  br label %44

44:                                               ; preds = %13, %43, %23
  ret void
}

; Function Attrs: inlinehint mustprogress nounwind uwtable
define internal noundef signext i8 @_ZL9U_FAILURE10UErrorCode(i32 noundef %0) #5 {
  %2 = alloca i32, align 4
  store i32 %0, ptr %2, align 4, !tbaa !34
  %3 = load i32, ptr %2, align 4, !tbaa !34
  %4 = icmp sgt i32 %3, 0
  %5 = zext i1 %4 to i8
  ret i8 %5
}

; Function Attrs: mustprogress uwtable
define noundef ptr @_ZN6icu_7713Norm2AllModes19getNFKC_SCFInstanceER10UErrorCode(ptr noundef nonnull align 4 dereferenceable(4) %0) #4 align 2 {
  %2 = alloca ptr, align 8
  %3 = alloca ptr, align 8
  store ptr %0, ptr %3, align 8, !tbaa !27
  %4 = load ptr, ptr %3, align 8, !tbaa !27
  %5 = load i32, ptr %4, align 4, !tbaa !34
  %6 = call noundef signext i8 @_ZL9U_FAILURE10UErrorCode(i32 noundef %5)
  %7 = icmp ne i8 %6, 0
  br i1 %7, label %8, label %9

8:                                                ; preds = %1
  store ptr null, ptr %2, align 8
  br label %12

9:                                                ; preds = %1
  %10 = load ptr, ptr %3, align 8, !tbaa !27
  call void @_ZN6icu_7713umtx_initOnceIPKcEEvRNS_9UInitOnceEPFvT_R10UErrorCodeES5_S7_(ptr noundef nonnull align 4 dereferenceable(8) @_ZN6icu_77L16nfkc_scfInitOnceE, ptr noundef @_ZN6icu_77L14initSingletonsEPKcR10UErrorCode, ptr noundef @.str.3, ptr noundef nonnull align 4 dereferenceable(4) %10)
  %11 = load ptr, ptr @_ZN6icu_77L17nfkc_scfSingletonE, align 8, !tbaa !39
  store ptr %11, ptr %2, align 8
  br label %12

12:                                               ; preds = %9, %8
  %13 = load ptr, ptr %2, align 8
  ret ptr %13
}

; Function Attrs: mustprogress uwtable
define noundef ptr @_ZN6icu_7711Normalizer229getNFKCSimpleCasefoldInstanceER10UErrorCode(ptr noundef nonnull align 4 dereferenceable(4) %0) #4 align 2 {
  %2 = alloca ptr, align 8
  %3 = alloca ptr, align 8
  store ptr %0, ptr %2, align 8, !tbaa !27
  call void @llvm.lifetime.start.p0(i64 8, ptr %3) #12
  %4 = load ptr, ptr %2, align 8, !tbaa !27
  %5 = call noundef ptr @_ZN6icu_7713Norm2AllModes19getNFKC_SCFInstanceER10UErrorCode(ptr noundef nonnull align 4 dereferenceable(4) %4)
  store ptr %5, ptr %3, align 8, !tbaa !39
  %6 = load ptr, ptr %3, align 8, !tbaa !39
  %7 = icmp ne ptr %6, null
  br i1 %7, label %8, label %11

8:                                                ; preds = %1
  %9 = load ptr, ptr %3, align 8, !tbaa !39
  %10 = getelementptr inbounds nuw %"struct.icu_77::Norm2AllModes", ptr %9, i32 0, i32 1
  br label %12

11:                                               ; preds = %1
  br label %12

12:                                               ; preds = %11, %8
  %13 = phi ptr [ %10, %8 ], [ null, %11 ]
  call void @llvm.lifetime.end.p0(i64 8, ptr %3) #12
  ret ptr %13
}